; ModuleID = '36/825.c'
source_filename = "36/825.c"
target datalayout = "e-m:e-p270:32:32-p271:32:32-p272:64:64-i64:64-f80:128-n8:16:32:64-S128"
target triple = "x86_64-pc-linux-gnu"

@.str = private unnamed_addr constant [6 x i8] c"%s %s\00", align 1
@.str.1 = private unnamed_addr constant [3 x i8] c"NO\00", align 1
@.str.2 = private unnamed_addr constant [4 x i8] c"YES\00", align 1

; Function Attrs: noinline nounwind uwtable
define dso_local void @main() #0 {
  %1 = alloca i32, align 4
  %2 = alloca i32, align 4
  %3 = alloca i32, align 4
  %4 = alloca i32, align 4
  %5 = alloca i32, align 4
  %6 = alloca [100 x i32], align 16
  %7 = alloca [100 x i8], align 16
  %8 = alloca [100 x i8], align 16
  store i32 0, i32* %5, align 4
  %9 = getelementptr inbounds [100 x i8], [100 x i8]* %7, i64 0, i64 0
  %10 = getelementptr inbounds [100 x i8], [100 x i8]* %8, i64 0, i64 0
  %11 = call i32 (i8*, ...) @__isoc99_scanf(i8* getelementptr inbounds ([6 x i8], [6 x i8]* @.str, i64 0, i64 0), i8* %9, i8* %10)
  %12 = getelementptr inbounds [100 x i8], [100 x i8]* %7, i64 0, i64 0
  %13 = call i64 @strlen(i8* %12) #3
  %14 = trunc i64 %13 to i32
  store i32 %14, i32* %1, align 4
  %15 = getelementptr inbounds [100 x i8], [100 x i8]* %8, i64 0, i64 0
  %16 = call i64 @strlen(i8* %15) #3
  %17 = trunc i64 %16 to i32
  store i32 %17, i32* %2, align 4
  store i32 0, i32* %3, align 4
  br label %18

18:                                               ; preds = %26, %0
  %19 = load i32, i32* %3, align 4
  %20 = load i32, i32* %1, align 4
  %21 = icmp slt i32 %19, %20
  br i1 %21, label %22, label %29

22:                                               ; preds = %18
  %23 = load i32, i32* %3, align 4
  %24 = sext i32 %23 to i64
  %25 = getelementptr inbounds [100 x i32], [100 x i32]* %6, i64 0, i64 %24
  store i32 1, i32* %25, align 4
  br label %26

26:                                               ; preds = %22
  %27 = load i32, i32* %3, align 4
  %28 = add nsw i32 %27, 1
  store i32 %28, i32* %3, align 4
  br label %18

29:                                               ; preds = %18
  %30 = load i32, i32* %1, align 4
  %31 = load i32, i32* %2, align 4
  %32 = icmp ne i32 %30, %31
  br i1 %32, label %33, label %35

33:                                               ; preds = %29
  %34 = call i32 (i8*, ...) @printf(i8* getelementptr inbounds ([3 x i8], [3 x i8]* @.str.1, i64 0, i64 0))
  br label %92

35:                                               ; preds = %29
  store i32 0, i32* %3, align 4
  br label %36

36:                                               ; preds = %80, %35
  %37 = load i32, i32* %3, align 4
  %38 = load i32, i32* %1, align 4
  %39 = icmp slt i32 %37, %38
  br i1 %39, label %40, label %83

40:                                               ; preds = %36
  store i32 0, i32* %4, align 4
  br label %41

41:                                               ; preds = %65, %40
  %42 = load i32, i32* %4, align 4
  %43 = load i32, i32* %2, align 4
  %44 = icmp slt i32 %42, %43
  br i1 %44, label %45, label %68

45:                                               ; preds = %41
  %46 = load i32, i32* %3, align 4
  %47 = sext i32 %46 to i64
  %48 = getelementptr inbounds [100 x i8], [100 x i8]* %7, i64 0, i64 %47
  %49 = load i8, i8* %48, align 1
  %50 = sext i8 %49 to i32
  %51 = load i32, i32* %4, align 4
  %52 = sext i32 %51 to i64
  %53 = getelementptr inbounds [100 x i8], [100 x i8]* %8, i64 0, i64 %52
  %54 = load i8, i8* %53, align 1
  %55 = sext i8 %54 to i32
  %56 = icmp eq i32 %50, %55
  br i1 %56, label %57, label %64

57:                                               ; preds = %45
  %58 = load i32, i32* %4, align 4
  %59 = sext i32 %58 to i64
  %60 = getelementptr inbounds [100 x i32], [100 x i32]* %6, i64 0, i64 %59
  %61 = load i32, i32* %60, align 4
  %62 = icmp ne i32 %61, 0
  br i1 %62, label %63, label %64

63:                                               ; preds = %57
  br label %68

64:                                               ; preds = %57, %45
  br label %65

65:                                               ; preds = %64
  %66 = load i32, i32* %4, align 4
  %67 = add nsw i32 %66, 1
  store i32 %67, i32* %4, align 4
  br label %41

68:                                               ; preds = %63, %41
  %69 = load i32, i32* %4, align 4
  %70 = load i32, i32* %2, align 4
  %71 = icmp sge i32 %69, %70
  br i1 %71, label %72, label %74

72:                                               ; preds = %68
  %73 = load i32, i32* %1, align 4
  store i32 %73, i32* %3, align 4
  br label %80

74:                                               ; preds = %68
  %75 = load i32, i32* %4, align 4
  %76 = sext i32 %75 to i64
  %77 = getelementptr inbounds [100 x i32], [100 x i32]* %6, i64 0, i64 %76
  store i32 0, i32* %77, align 4
  %78 = load i32, i32* %5, align 4
  %79 = add nsw i32 %78, 1
  store i32 %79, i32* %5, align 4
  br label %80

80:                                               ; preds = %74, %72
  %81 = load i32, i32* %3, align 4
  %82 = add nsw i32 %81, 1
  store i32 %82, i32* %3, align 4
  br label %36

83:                                               ; preds = %36
  %84 = load i32, i32* %5, align 4
  %85 = load i32, i32* %1, align 4
  %86 = icmp eq i32 %84, %85
  br i1 %86, label %87, label %89

87:                                               ; preds = %83
  %88 = call i32 (i8*, ...) @printf(i8* getelementptr inbounds ([4 x i8], [4 x i8]* @.str.2, i64 0, i64 0))
  br label %91

89:                                               ; preds = %83
  %90 = call i32 (i8*, ...) @printf(i8* getelementptr inbounds ([3 x i8], [3 x i8]* @.str.1, i64 0, i64 0))
  br label %91

91:                                               ; preds = %89, %87
  br label %92

92:                                               ; preds = %91, %33
  ret void
}

declare dso_local i32 @__isoc99_scanf(i8*, ...) #1

; Function Attrs: nounwind readonly
declare dso_local i64 @strlen(i8*) #2

declare dso_local i32 @printf(i8*, ...) #1


!llvm.module.flags = !{!0}
!llvm.ident = !{!1}

!0 = !{i32 1, !"wchar_size", i32 4}
!1 = !{!"clang version 10.0.0-4ubuntu1 "}
